target datalayout = "e-m:e-p270:32:32-p271:32:32-p272:64:64-i64:64-i128:128-f80:128-n8:16:32:64-S128"
target triple = "x86_64-pc-linux-gnu"

@dt_util_localize_string.prefix = internal constant [7 x i8] c"_l10n_\00", align 1

; Function Attrs: nounwind uwtable
define ptr @dt_util_localize_string(ptr noundef %0) #0 {
  %2 = alloca ptr, align 8
  %3 = alloca ptr, align 8
  store ptr %0, ptr %3, align 8, !tbaa !6
  %4 = load ptr, ptr %3, align 8, !tbaa !6
  %5 = icmp ne ptr %4, null
  br i1 %5, label %6, label %14

6:                                                ; preds = %1
  %7 = load ptr, ptr %3, align 8, !tbaa !6
  %8 = call i32 @strncmp(ptr noundef %7, ptr noundef @dt_util_localize_string.prefix, i64 noundef 6) #17
  %9 = icmp eq i32 %8, 0
  br i1 %9, label %10, label %14

10:                                               ; preds = %6
  %11 = load ptr, ptr %3, align 8, !tbaa !6
  %12 = getelementptr inbounds i8, ptr %11, i64 6
  %13 = call ptr @dcgettext(ptr noundef null, ptr noundef %12, i32 noundef 5) #18
  store ptr %13, ptr %2, align 8
  br label %16

14:                                               ; preds = %6, %1
  %15 = load ptr, ptr %3, align 8, !tbaa !6
  store ptr %15, ptr %2, align 8
  br label %16

16:                                               ; preds = %14, %10
  %17 = load ptr, ptr %2, align 8
  ret ptr %17
}