; Function Attrs: nounwind uwtable
define ptr @dt_util_localize_string(ptr noundef %0) local_unnamed_addr #0 {
  %.not = icmp eq ptr %0, null
  br i1 %.not, label %8, label %2

2:                                                ; preds = %1
  %3 = tail call i32 @strncmp(ptr noundef nonnull dereferenceable(1) %0, ptr noundef nonnull dereferenceable(7) @dt_util_localize_string.prefix, i64 noundef 6) #26
  %4 = icmp eq i32 %3, 0
  br i1 %4, label %5, label %8

5:                                                ; preds = %2
  %6 = getelementptr inbounds nuw i8, ptr %0, i64 6
  %7 = tail call ptr @dcgettext(ptr noundef null, ptr noundef nonnull %6, i32 noundef 5) #27
  br label %8

8:                                                ; preds = %1, %2, %5
  %.0 = phi ptr [ %7, %5 ], [ %0, %2 ], [ null, %1 ]
  ret ptr %.0
}